Certificate:
    Data:
        Version: 3 (0x2)
        Serial Number: 4096 (0x1000)
    Signature Algorithm: sha256WithRSAEncryption
        Issuer: C=US, ST=MD, L=Baltimore, O=NetSec, OU=GN, CN=GN/emailAddress=sadenithin@gmail.com
        Validity
            Not Before: Apr 27 17:11:24 2019 GMT
            Not After : Apr 26 17:11:24 2020 GMT
        Subject: C=US, ST=MD, L=Baltimore, O=NetSec, OU=GNServer, CN=GN/emailAddress=sade_server@gmail.com
        Subject Public Key Info:
            Public Key Algorithm: rsaEncryption
                Public-Key: (2048 bit)
                Modulus:
                    00:a6:5e:67:bd:ca:02:0a:b8:64:74:3f:ed:3d:29:
                    d9:d4:8d:fe:0d:f7:f9:6c:f5:11:34:58:0b:c4:25:
                    ed:35:69:26:89:9c:dd:13:75:f9:0e:45:f9:d5:d9:
                    22:c4:05:f8:84:44:e6:16:8f:5c:34:f8:ad:12:d2:
                    90:8a:3f:7d:c8:ca:0a:b3:02:65:0e:70:23:3e:d7:
                    90:84:5e:1a:4e:99:40:21:70:2e:75:3b:70:7f:ea:
                    9e:11:80:67:42:2f:61:de:e4:48:71:b7:f9:a0:da:
                    2c:cf:e3:ec:b0:bd:96:47:6d:0b:dc:fd:6c:32:78:
                    3d:63:67:f3:4f:a8:7e:d0:56:ab:0b:c3:ce:91:a7:
                    6c:bf:3c:46:c2:a8:d9:c3:f2:a5:ca:69:8a:e3:cb:
                    b9:a0:17:25:7a:a1:00:1f:2f:0e:f3:21:b8:09:ba:
                    0f:d3:aa:85:3d:80:42:40:33:c3:26:04:f3:d3:88:
                    a9:17:05:34:25:45:de:95:e9:72:c6:83:2e:cf:0b:
                    30:2c:09:84:0a:0e:40:c2:4d:90:75:56:33:26:14:
                    8d:2a:d8:fe:7a:48:5b:f6:0a:07:8b:7e:c0:7c:1b:
                    b4:e5:23:24:9c:43:2c:85:ae:20:49:41:1c:6e:fb:
                    7f:b2:40:7c:93:77:86:f8:69:ac:26:f5:75:c5:60:
                    2d:69
                Exponent: 65537 (0x10001)
        X509v3 extensions:
            X509v3 Basic Constraints: 
                CA:FALSE
            Netscape Comment: 
                OpenSSL Generated Certificate
            X509v3 Subject Key Identifier: 
                85:E8:8C:5E:CD:D2:D9:CB:37:EF:A4:FA:2A:DC:BD:53:03:59:87:A3
            X509v3 Authority Key Identifier: 
                keyid:55:F3:9B:65:EA:99:BA:F8:8A:49:30:68:BA:90:4C:AB:6A:BC:93:DC

    Signature Algorithm: sha256WithRSAEncryption
         3e:c5:ad:bc:5d:ec:05:f0:a7:7f:93:08:fc:eb:1b:9d:91:76:
         90:f4:19:8b:f6:3f:83:e0:3e:0b:5f:8b:d0:ec:9b:a9:ab:f0:
         79:8b:b2:3f:bd:da:39:ed:9e:b9:ea:66:3f:12:01:50:91:de:
         8a:61:23:2a:5f:6f:dc:65:66:c0:68:a0:f5:b9:12:fc:c4:4e:
         1b:26:a0:ff:32:bf:4c:d2:a3:13:11:df:72:ac:e3:0a:aa:62:
         a1:48:ee:d3:49:ef:d4:ff:1a:50:ef:73:a1:d9:06:90:b3:f5:
         60:2a:1f:17:7e:03:2c:7e:17:63:e3:b4:db:25:72:6b:00:61:
         c7:23:4c:8e:39:0e:a7:1c:ba:a5:01:b1:ff:ad:d7:f0:d1:f8:
         71:75:8f:2d:e9:eb:c3:05:d1:ba:19:f2:48:68:58:3a:b8:09:
         04:d1:55:11:bd:8b:4c:74:78:5c:88:7f:c9:72:bf:b7:cc:12:
         82:cb:f5:e5:77:f0:fe:a2:63:69:5d:22:ac:e9:00:2a:d1:96:
         59:9a:97:bf:41:93:fd:b3:ac:32:e4:0a:0d:70:82:b4:58:fb:
         74:d4:a4:de:16:14:96:fc:9b:45:7f:2a:08:ca:ee:45:d5:db:
         d6:f4:0c:29:eb:97:43:8c:72:30:32:39:eb:c5:54:3d:ad:e1:
         36:7a:cd:ed
-----BEGIN CERTIFICATE-----
MIID+zCCAuOgAwIBAgICEAAwDQYJKoZIhvcNAQELBQAwfjELMAkGA1UEBhMCVVMx
CzAJBgNVBAgMAk1EMRIwEAYDVQQHDAlCYWx0aW1vcmUxDzANBgNVBAoMBk5ldFNl
YzELMAkGA1UECwwCR04xCzAJBgNVBAMMAkdOMSMwIQYJKoZIhvcNAQkBFhRzYWRl
bml0aGluQGdtYWlsLmNvbTAeFw0xOTA0MjcxNzExMjRaFw0yMDA0MjYxNzExMjRa
MIGFMQswCQYDVQQGEwJVUzELMAkGA1UECAwCTUQxEjAQBgNVBAcMCUJhbHRpbW9y
ZTEPMA0GA1UECgwGTmV0U2VjMREwDwYDVQQLDAhHTlNlcnZlcjELMAkGA1UEAwwC
R04xJDAiBgkqhkiG9w0BCQEWFXNhZGVfc2VydmVyQGdtYWlsLmNvbTCCASIwDQYJ
KoZIhvcNAQEBBQADggEPADCCAQoCggEBAKZeZ73KAgq4ZHQ/7T0p2dSN/g33+Wz1
ETRYC8Ql7TVpJomc3RN1+Q5F+dXZIsQF+IRE5haPXDT4rRLSkIo/fcjKCrMCZQ5w
Iz7XkIReGk6ZQCFwLnU7cH/qnhGAZ0IvYd7kSHG3+aDaLM/j7LC9lkdtC9z9bDJ4
PWNn80+oftBWqwvDzpGnbL88RsKo2cPypcppiuPLuaAXJXqhAB8vDvMhuAm6D9Oq
hT2AQkAzwyYE89OIqRcFNCVF3pXpcsaDLs8LMCwJhAoOQMJNkHVWMyYUjSrY/npI
W/YKB4t+wHwbtOUjJJxDLIWuIElBHG77f7JAfJN3hvhprCb1dcVgLWkCAwEAAaN7
MHkwCQYDVR0TBAIwADAsBglghkgBhvhCAQ0EHxYdT3BlblNTTCBHZW5lcmF0ZWQg
Q2VydGlmaWNhdGUwHQYDVR0OBBYEFIXojF7N0tnLN++k+ircvVMDWYejMB8GA1Ud
IwQYMBaAFFXzm2Xqmbr4ikkwaLqQTKtqvJPcMA0GCSqGSIb3DQEBCwUAA4IBAQA+
xa28XewF8Kd/kwj86xudkXaQ9BmL9j+D4D4LX4vQ7Jupq/B5i7I/vdo57Z656mY/
EgFQkd6KYSMqX2/cZWbAaKD1uRL8xE4bJqD/Mr9M0qMTEd9yrOMKqmKhSO7TSe/U
/xpQ73Oh2QaQs/VgKh8XfgMsfhdj47TbJXJrAGHHI0yOOQ6nHLqlAbH/rdfw0fhx
dY8t6evDBdG6GfJIaFg6uAkE0VURvYtMdHhciH/Jcr+3zBKCy/Xld/D+omNpXSKs
6QAq0ZZZmpe/QZP9s6wy5AoNcIK0WPt01KTeFhSW/JtFfyoIyu5F1dvW9Awp65dD
jHIwMjnrxVQ9reE2es3t
-----END CERTIFICATE-----
