Certificate:
    Data:
        Version: 3 (0x2)
        Serial Number: 4097 (0x1001)
    Signature Algorithm: sha256WithRSAEncryption
        Issuer: C=US, ST=MD, L=Baltimore, O=NetSec, OU=GN, CN=GN/emailAddress=sadenithin@gmail.com
        Validity
            Not Before: Apr 27 17:21:36 2019 GMT
            Not After : Apr 26 17:21:36 2020 GMT
        Subject: C=US, ST=MD, L=Baltimore, O=NetSec, OU=GNcli, CN=BN/emailAddress=sade_client@gmail.com
        Subject Public Key Info:
            Public Key Algorithm: rsaEncryption
                Public-Key: (2048 bit)
                Modulus:
                    00:f4:57:9c:82:73:1b:81:82:49:e4:06:11:1a:3d:
                    ff:6f:6e:21:70:2e:89:f3:52:cd:ff:12:6c:60:be:
                    18:5b:4b:54:3e:f5:92:41:e7:37:4f:a3:86:d7:af:
                    99:cd:fa:48:5c:ca:02:94:69:5a:54:10:cb:db:6c:
                    49:13:63:96:93:e3:4f:a4:e5:17:65:43:d2:c1:b2:
                    d4:d8:0d:45:a8:09:3d:4e:13:dc:a8:fd:49:1c:89:
                    04:eb:d7:c6:42:71:07:6b:c5:fa:49:f7:85:31:95:
                    c3:34:2c:ba:0e:c9:e1:a5:30:13:b8:f2:87:4a:02:
                    56:28:cc:44:8f:11:97:57:af:e7:5d:5f:df:ea:30:
                    33:57:bd:64:69:3a:a4:d8:48:f9:60:10:70:72:49:
                    f0:2f:8d:52:1f:df:ee:d7:d8:c6:ac:78:56:67:c6:
                    ec:82:4d:6f:6b:cb:88:2e:2b:11:67:b4:53:62:b4:
                    3e:47:72:e9:ea:74:6a:4a:bc:03:59:93:cc:6a:4f:
                    eb:9f:ce:82:a0:2c:a7:6c:5c:ac:9e:54:e5:d7:5a:
                    3e:2e:c0:e5:d7:fc:04:ec:f4:79:64:2b:cc:4b:c4:
                    19:d2:75:0b:2d:ca:bb:a3:96:31:c7:d3:6a:b8:49:
                    70:00:53:30:41:19:8f:d4:46:72:df:20:20:80:e8:
                    54:69
                Exponent: 65537 (0x10001)
        X509v3 extensions:
            X509v3 Basic Constraints: 
                CA:FALSE
            Netscape Comment: 
                OpenSSL Generated Certificate
            X509v3 Subject Key Identifier: 
                79:97:EB:97:88:69:A8:C8:ED:63:13:96:26:C9:FC:5F:07:AF:90:9B
            X509v3 Authority Key Identifier: 
                keyid:55:F3:9B:65:EA:99:BA:F8:8A:49:30:68:BA:90:4C:AB:6A:BC:93:DC

    Signature Algorithm: sha256WithRSAEncryption
         27:7c:41:2f:93:2f:43:d4:ee:21:82:05:9a:6b:02:02:da:05:
         85:13:bf:4d:1f:00:67:21:f8:4f:94:63:0f:7d:09:0b:3a:5f:
         8d:bd:31:bf:fb:71:2a:2a:35:c0:51:f7:d6:3c:03:87:ef:5b:
         d0:37:54:30:ed:bc:1e:97:1f:3c:78:7a:bd:80:b4:e1:4a:15:
         9a:c1:74:19:6f:b4:7e:c1:6e:5a:7c:d9:f1:9e:b9:78:0a:8f:
         0a:e4:d1:56:46:ec:d3:03:fe:8c:b9:ec:c0:59:56:3f:ee:6e:
         21:ae:e5:98:5a:bb:13:9b:fa:6c:e1:29:a8:e1:77:a5:d5:95:
         d3:1d:b7:a6:63:48:cc:4d:e8:bf:7d:4f:27:ac:ae:eb:7e:e6:
         5d:26:ef:ee:6a:1a:30:32:31:5d:7b:82:4e:b9:dc:6b:ac:22:
         a7:f8:d3:93:fb:99:3b:83:2d:46:2b:bb:b7:03:ab:b4:5f:30:
         f0:36:1d:59:85:3f:f1:78:46:55:d9:14:bf:95:1f:ca:0e:72:
         f2:d3:08:ad:7b:d4:5e:3d:d3:bc:f9:5a:ca:d9:62:9c:4d:88:
         36:15:85:f2:47:57:a5:0d:f4:97:ce:0c:b9:08:ac:ea:06:87:
         16:10:cf:46:15:bd:d3:b7:ef:cb:d2:44:10:8d:4f:00:b8:d5:
         50:fc:21:83
-----BEGIN CERTIFICATE-----
MIID+DCCAuCgAwIBAgICEAEwDQYJKoZIhvcNAQELBQAwfjELMAkGA1UEBhMCVVMx
CzAJBgNVBAgMAk1EMRIwEAYDVQQHDAlCYWx0aW1vcmUxDzANBgNVBAoMBk5ldFNl
YzELMAkGA1UECwwCR04xCzAJBgNVBAMMAkdOMSMwIQYJKoZIhvcNAQkBFhRzYWRl
bml0aGluQGdtYWlsLmNvbTAeFw0xOTA0MjcxNzIxMzZaFw0yMDA0MjYxNzIxMzZa
MIGCMQswCQYDVQQGEwJVUzELMAkGA1UECAwCTUQxEjAQBgNVBAcMCUJhbHRpbW9y
ZTEPMA0GA1UECgwGTmV0U2VjMQ4wDAYDVQQLDAVHTmNsaTELMAkGA1UEAwwCQk4x
JDAiBgkqhkiG9w0BCQEWFXNhZGVfY2xpZW50QGdtYWlsLmNvbTCCASIwDQYJKoZI
hvcNAQEBBQADggEPADCCAQoCggEBAPRXnIJzG4GCSeQGERo9/29uIXAuifNSzf8S
bGC+GFtLVD71kkHnN0+jhtevmc36SFzKApRpWlQQy9tsSRNjlpPjT6TlF2VD0sGy
1NgNRagJPU4T3Kj9SRyJBOvXxkJxB2vF+kn3hTGVwzQsug7J4aUwE7jyh0oCVijM
RI8Rl1ev511f3+owM1e9ZGk6pNhI+WAQcHJJ8C+NUh/f7tfYxqx4VmfG7IJNb2vL
iC4rEWe0U2K0Pkdy6ep0akq8A1mTzGpP65/OgqAsp2xcrJ5U5ddaPi7A5df8BOz0
eWQrzEvEGdJ1Cy3Ku6OWMcfTarhJcABTMEEZj9RGct8gIIDoVGkCAwEAAaN7MHkw
CQYDVR0TBAIwADAsBglghkgBhvhCAQ0EHxYdT3BlblNTTCBHZW5lcmF0ZWQgQ2Vy
dGlmaWNhdGUwHQYDVR0OBBYEFHmX65eIaajI7WMTlibJ/F8Hr5CbMB8GA1UdIwQY
MBaAFFXzm2Xqmbr4ikkwaLqQTKtqvJPcMA0GCSqGSIb3DQEBCwUAA4IBAQAnfEEv
ky9D1O4hggWaawIC2gWFE79NHwBnIfhPlGMPfQkLOl+NvTG/+3EqKjXAUffWPAOH
71vQN1Qw7bwelx88eHq9gLThShWawXQZb7R+wW5afNnxnrl4Co8K5NFWRuzTA/6M
uezAWVY/7m4hruWYWrsTm/ps4Smo4Xel1ZXTHbemY0jMTei/fU8nrK7rfuZdJu/u
ahowMjFde4JOudxrrCKn+NOT+5k7gy1GK7u3A6u0XzDwNh1ZhT/xeEZV2RS/lR/K
DnLy0wite9RePdO8+VrK2WKcTYg2FYXyR1elDfSXzgy5CKzqBocWEM9GFb3Tt+/L
0kQQjU8AuNVQ/CGD
-----END CERTIFICATE-----
